; Function Attrs: mustprogress uwtable
define void @_ZN2cv4gapi5cmpEQERKNS_4GMatERKNS_7GScalarE(ptr dead_on_unwind noalias writable sret(%"class.cv::GMat") align 8 %0, ptr noundef nonnull readonly align 8 captures(none) dereferenceable(16) %1, ptr noundef nonnull readonly align 8 captures(none) dereferenceable(16) %2) local_unnamed_addr #3 personality ptr @__gxx_personality_v0 {
  %4 = alloca %"class.cv::GMat", align 8
  %5 = alloca %"class.cv::GScalar", align 8
  %6 = load ptr, ptr %1, align 8, !tbaa !3
  store ptr %6, ptr %4, align 8, !tbaa !3
  %7 = getelementptr inbounds nuw i8, ptr %4, i64 8
  %8 = getelementptr inbounds nuw i8, ptr %1, i64 8
  %9 = load ptr, ptr %8, align 8, !tbaa !11
  store ptr %9, ptr %7, align 8, !tbaa !11
  %.not.i.i.i.i = icmp eq ptr %9, null
  br i1 %.not.i.i.i.i, label %_ZN2cv4GMatC2ERKS0_.exit, label %10

10:                                               ; preds = %3
  %11 = getelementptr inbounds nuw i8, ptr %9, i64 8
  %12 = load i8, ptr @__libc_single_threaded, align 1, !tbaa !12
  %.not.i.i.i.i.i = icmp eq i8 %12, 0
  br i1 %.not.i.i.i.i.i, label %16, label %13

13:                                               ; preds = %10
  %14 = load i32, ptr %11, align 4, !tbaa !13
  %15 = add nsw i32 %14, 1
  store i32 %15, ptr %11, align 4, !tbaa !13
  br label %_ZN2cv4GMatC2ERKS0_.exit

16:                                               ; preds = %10
  %17 = atomicrmw volatile add ptr %11, i32 1 acq_rel, align 4
  br label %_ZN2cv4GMatC2ERKS0_.exit

_ZN2cv4GMatC2ERKS0_.exit:                         ; preds = %3, %13, %16
  %18 = load ptr, ptr %2, align 8, !tbaa !3
  store ptr %18, ptr %5, align 8, !tbaa !3
  %19 = getelementptr inbounds nuw i8, ptr %5, i64 8
  %20 = getelementptr inbounds nuw i8, ptr %2, i64 8
  %21 = load ptr, ptr %20, align 8, !tbaa !11
  store ptr %21, ptr %19, align 8, !tbaa !11
  %.not.i.i.i.i3 = icmp eq ptr %21, null
  br i1 %.not.i.i.i.i3, label %_ZN2cv7GScalarC2ERKS0_.exit, label %22

22:                                               ; preds = %_ZN2cv4GMatC2ERKS0_.exit
  %23 = getelementptr inbounds nuw i8, ptr %21, i64 8
  %24 = load i8, ptr @__libc_single_threaded, align 1, !tbaa !12
  %.not.i.i.i.i.i4 = icmp eq i8 %24, 0
  br i1 %.not.i.i.i.i.i4, label %28, label %25

25:                                               ; preds = %22
  %26 = load i32, ptr %23, align 4, !tbaa !13
  %27 = add nsw i32 %26, 1
  store i32 %27, ptr %23, align 4, !tbaa !13
  br label %_ZN2cv7GScalarC2ERKS0_.exit

28:                                               ; preds = %22
  %29 = atomicrmw volatile add ptr %23, i32 1 acq_rel, align 4
  br label %_ZN2cv7GScalarC2ERKS0_.exit

_ZN2cv7GScalarC2ERKS0_.exit:                      ; preds = %_ZN2cv4GMatC2ERKS0_.exit, %25, %28
  invoke void @_ZN2cv11GKernelTypeINS_4gapi4core12GCmpEQScalarESt8functionIFNS_4GMatES5_NS_7GScalarEEEE2onES5_S6_(ptr dead_on_unwind writable sret(%"class.cv::GMat") align 8 %0, ptr noundef nonnull %4, ptr noundef nonnull %5)
          to label %30 unwind label %75

30:                                               ; preds = %_ZN2cv7GScalarC2ERKS0_.exit
  %31 = load ptr, ptr %19, align 8, !tbaa !11
  %.not.i.i.i = icmp eq ptr %31, null
  br i1 %.not.i.i.i, label %_ZN2cv7GScalarD2Ev.exit, label %32

32:                                               ; preds = %30
  %33 = getelementptr inbounds nuw i8, ptr %31, i64 8
  %34 = load atomic i64, ptr %33 acquire, align 8
  %35 = icmp eq i64 %34, 4294967297
  %36 = trunc i64 %34 to i32
  br i1 %35, label %37, label %45

37:                                               ; preds = %32
  store i32 0, ptr %33, align 8, !tbaa !15
  %38 = getelementptr inbounds nuw i8, ptr %31, i64 12
  store i32 0, ptr %38, align 4, !tbaa !17
  %39 = load ptr, ptr %31, align 8, !tbaa !18
  %40 = getelementptr inbounds nuw i8, ptr %39, i64 16
  %41 = load ptr, ptr %40, align 8
  call void %41(ptr noundef nonnull align 8 dereferenceable(16) %31) #23
  %42 = load ptr, ptr %31, align 8, !tbaa !18
  %43 = getelementptr inbounds nuw i8, ptr %42, i64 24
  %44 = load ptr, ptr %43, align 8
  call void %44(ptr noundef nonnull align 8 dereferenceable(16) %31) #23
  br label %_ZN2cv7GScalarD2Ev.exit

45:                                               ; preds = %32
  %46 = load i8, ptr @__libc_single_threaded, align 1, !tbaa !12
  %.not.i.i.i.i5 = icmp eq i8 %46, 0
  br i1 %.not.i.i.i.i5, label %49, label %47

47:                                               ; preds = %45
  %48 = add nsw i32 %36, -1
  store i32 %48, ptr %33, align 4, !tbaa !13
  br label %_ZN9__gnu_cxx27__exchange_and_add_dispatchEPii.exit.i.i.i.i

49:                                               ; preds = %45
  %50 = atomicrmw volatile add ptr %33, i32 -1 acq_rel, align 4
  br label %_ZN9__gnu_cxx27__exchange_and_add_dispatchEPii.exit.i.i.i.i

_ZN9__gnu_cxx27__exchange_and_add_dispatchEPii.exit.i.i.i.i: ; preds = %49, %47
  %.0.i.i.i.i.i = phi i32 [ %36, %47 ], [ %50, %49 ]
  %51 = icmp eq i32 %.0.i.i.i.i.i, 1
  br i1 %51, label %52, label %_ZN2cv7GScalarD2Ev.exit, !prof !20

52:                                               ; preds = %_ZN9__gnu_cxx27__exchange_and_add_dispatchEPii.exit.i.i.i.i
  call void @_ZNSt16_Sp_counted_baseILN9__gnu_cxx12_Lock_policyE2EE24_M_release_last_use_coldEv(ptr noundef nonnull align 8 dereferenceable(16) %31) #23
  br label %_ZN2cv7GScalarD2Ev.exit

_ZN2cv7GScalarD2Ev.exit:                          ; preds = %30, %37, %_ZN9__gnu_cxx27__exchange_and_add_dispatchEPii.exit.i.i.i.i, %52
  %53 = load ptr, ptr %7, align 8, !tbaa !11
  %.not.i.i.i6 = icmp eq ptr %53, null
  br i1 %.not.i.i.i6, label %_ZN2cv4GMatD2Ev.exit, label %54

54:                                               ; preds = %_ZN2cv7GScalarD2Ev.exit
  %55 = getelementptr inbounds nuw i8, ptr %53, i64 8
  %56 = load atomic i64, ptr %55 acquire, align 8
  %57 = icmp eq i64 %56, 4294967297
  %58 = trunc i64 %56 to i32
  br i1 %57, label %59, label %67

59:                                               ; preds = %54
  store i32 0, ptr %55, align 8, !tbaa !15
  %60 = getelementptr inbounds nuw i8, ptr %53, i64 12
  store i32 0, ptr %60, align 4, !tbaa !17
  %61 = load ptr, ptr %53, align 8, !tbaa !18
  %62 = getelementptr inbounds nuw i8, ptr %61, i64 16
  %63 = load ptr, ptr %62, align 8
  call void %63(ptr noundef nonnull align 8 dereferenceable(16) %53) #23
  %64 = load ptr, ptr %53, align 8, !tbaa !18
  %65 = getelementptr inbounds nuw i8, ptr %64, i64 24
  %66 = load ptr, ptr %65, align 8
  call void %66(ptr noundef nonnull align 8 dereferenceable(16) %53) #23
  br label %_ZN2cv4GMatD2Ev.exit

67:                                               ; preds = %54
  %68 = load i8, ptr @__libc_single_threaded, align 1, !tbaa !12
  %.not.i.i.i.i7 = icmp eq i8 %68, 0
  br i1 %.not.i.i.i.i7, label %71, label %69

69:                                               ; preds = %67
  %70 = add nsw i32 %58, -1
  store i32 %70, ptr %55, align 4, !tbaa !13
  br label %_ZN9__gnu_cxx27__exchange_and_add_dispatchEPii.exit.i.i.i.i8

71:                                               ; preds = %67
  %72 = atomicrmw volatile add ptr %55, i32 -1 acq_rel, align 4
  br label %_ZN9__gnu_cxx27__exchange_and_add_dispatchEPii.exit.i.i.i.i8

_ZN9__gnu_cxx27__exchange_and_add_dispatchEPii.exit.i.i.i.i8: ; preds = %71, %69
  %.0.i.i.i.i.i9 = phi i32 [ %58, %69 ], [ %72, %71 ]
  %73 = icmp eq i32 %.0.i.i.i.i.i9, 1
  br i1 %73, label %74, label %_ZN2cv4GMatD2Ev.exit, !prof !20

74:                                               ; preds = %_ZN9__gnu_cxx27__exchange_and_add_dispatchEPii.exit.i.i.i.i8
  call void @_ZNSt16_Sp_counted_baseILN9__gnu_cxx12_Lock_policyE2EE24_M_release_last_use_coldEv(ptr noundef nonnull align 8 dereferenceable(16) %53) #23
  br label %_ZN2cv4GMatD2Ev.exit

_ZN2cv4GMatD2Ev.exit:                             ; preds = %_ZN2cv7GScalarD2Ev.exit, %59, %_ZN9__gnu_cxx27__exchange_and_add_dispatchEPii.exit.i.i.i.i8, %74
  ret void

75:                                               ; preds = %_ZN2cv7GScalarC2ERKS0_.exit
  %76 = landingpad { ptr, i32 }
          cleanup
  call void @_ZN2cv7GScalarD2Ev(ptr noundef nonnull align 8 dereferenceable(16) %5) #23
  call void @_ZN2cv4GMatD2Ev(ptr noundef nonnull align 8 dereferenceable(16) %4) #23
  resume { ptr, i32 } %76
}